	.file	"main.cpp"
	.text
.Ltext0:
	.section	.rodata
	.type	_ZStL19piecewise_construct, @object
	.size	_ZStL19piecewise_construct, 1
_ZStL19piecewise_construct:
	.zero	1
	.local	_ZStL8__ioinit
	.comm	_ZStL8__ioinit,1,1
	.section	.text._ZN6StringC2Ev,"axG",@progbits,_ZN6StringC5Ev,comdat
	.align 2
	.weak	_ZN6StringC2Ev
	.type	_ZN6StringC2Ev, @function
_ZN6StringC2Ev:
.LFB1384:
	.file 1 "main.cpp"
	.loc 1 8 0
	.cfi_startproc
	pushq	%rbp
	.cfi_def_cfa_offset 16
	.cfi_offset 6, -16
	movq	%rsp, %rbp
	.cfi_def_cfa_register 6
	subq	$16, %rsp
	movq	%rdi, -8(%rbp)
.LBB2:
	.loc 1 8 0
	movq	-8(%rbp), %rax
	movq	$0, (%rax)
	.loc 1 9 0
	movl	$1024, %edi
	call	_Znam
	movq	%rax, %rcx
	movq	%rcx, %rax
	movl	$1023, %edx
	movb	$97, (%rax)
	addq	$1, %rax
	subq	$1, %rdx
	movb	$98, (%rax)
	addq	$1, %rax
	subq	$1, %rdx
	movb	$99, (%rax)
	addq	$1, %rax
	subq	$1, %rdx
.L3:
	.loc 1 9 0 is_stmt 0 discriminator 3
	cmpq	$-1, %rdx
	je	.L2
	.loc 1 9 0 discriminator 2
	movb	$0, (%rax)
	addq	$1, %rax
	subq	$1, %rdx
	jmp	.L3
.L2:
	.loc 1 9 0
	movq	-8(%rbp), %rax
	movq	%rcx, (%rax)
.LBE2:
	.loc 1 10 0 is_stmt 1
	nop
	leave
	.cfi_def_cfa 7, 8
	ret
	.cfi_endproc
.LFE1384:
	.size	_ZN6StringC2Ev, .-_ZN6StringC2Ev
	.weak	_ZN6StringC1Ev
	.set	_ZN6StringC1Ev,_ZN6StringC2Ev
	.section	.text._ZN6StringaSERKS_,"axG",@progbits,_ZN6StringaSERKS_,comdat
	.align 2
	.weak	_ZN6StringaSERKS_
	.type	_ZN6StringaSERKS_, @function
_ZN6StringaSERKS_:
.LFB1386:
	.loc 1 12 0
	.cfi_startproc
	pushq	%rbp
	.cfi_def_cfa_offset 16
	.cfi_offset 6, -16
	movq	%rsp, %rbp
	.cfi_def_cfa_register 6
	subq	$16, %rsp
	movq	%rdi, -8(%rbp)
	movq	%rsi, -16(%rbp)
	.loc 1 16 0
	movq	-8(%rbp), %rax
	movq	(%rax), %rax
	testq	%rax, %rax
	je	.L5
	.loc 1 17 0
	movq	-8(%rbp), %rax
	movq	(%rax), %rax
	testq	%rax, %rax
	je	.L6
	.loc 1 17 0 is_stmt 0 discriminator 1
	movq	-8(%rbp), %rax
	movq	(%rax), %rax
	movq	%rax, %rdi
	call	_ZdaPv
.L6:
	.loc 1 18 0 is_stmt 1
	movl	$_ZSt7nothrow, %esi
	movl	$1024, %edi
	call	_ZnamRKSt9nothrow_t
	movq	%rax, %rdx
	movq	-8(%rbp), %rax
	movq	%rdx, (%rax)
	.loc 1 19 0
	movq	-8(%rbp), %rax
	movq	(%rax), %rax
	movl	$1024, %edx
	movl	$0, %esi
	movq	%rax, %rdi
	call	memset
	.loc 1 20 0
	movq	-16(%rbp), %rax
	movq	(%rax), %rcx
	movq	-8(%rbp), %rax
	movq	(%rax), %rax
	movl	$1024, %edx
	movq	%rcx, %rsi
	movq	%rax, %rdi
	call	strncpy
.L5:
	.loc 1 22 0
	movq	-8(%rbp), %rax
	.loc 1 23 0
	leave
	.cfi_def_cfa 7, 8
	ret
	.cfi_endproc
.LFE1386:
	.size	_ZN6StringaSERKS_, .-_ZN6StringaSERKS_
	.section	.rodata
.LC0:
	.string	"p addr: %p\n"
.LC1:
	.string	"p value: %s\n"
	.section	.text._ZN6String9printAddrEv,"axG",@progbits,_ZN6String9printAddrEv,comdat
	.align 2
	.weak	_ZN6String9printAddrEv
	.type	_ZN6String9printAddrEv, @function
_ZN6String9printAddrEv:
.LFB1387:
	.loc 1 25 0
	.cfi_startproc
	pushq	%rbp
	.cfi_def_cfa_offset 16
	.cfi_offset 6, -16
	movq	%rsp, %rbp
	.cfi_def_cfa_register 6
	subq	$16, %rsp
	movq	%rdi, -8(%rbp)
	.loc 1 26 0
	movq	-8(%rbp), %rax
	movq	(%rax), %rax
	movq	%rax, %rsi
	movl	$.LC0, %edi
	movl	$0, %eax
	call	printf
	.loc 1 27 0
	movq	-8(%rbp), %rax
	movq	(%rax), %rax
	movq	%rax, %rsi
	movl	$.LC1, %edi
	movl	$0, %eax
	call	printf
	.loc 1 28 0
	nop
	leave
	.cfi_def_cfa 7, 8
	ret
	.cfi_endproc
.LFE1387:
	.size	_ZN6String9printAddrEv, .-_ZN6String9printAddrEv
	.section	.rodata
.LC2:
	.string	"Hello, World!"
	.text
	.globl	main
	.type	main, @function
main:
.LFB1388:
	.loc 1 34 0
	.cfi_startproc
	pushq	%rbp
	.cfi_def_cfa_offset 16
	.cfi_offset 6, -16
	movq	%rsp, %rbp
	.cfi_def_cfa_register 6
	subq	$32, %rsp
	.loc 1 34 0
	movq	%fs:40, %rax
	movq	%rax, -8(%rbp)
	xorl	%eax, %eax
	.loc 1 35 0
	movl	$.LC2, %esi
	movl	$_ZSt4cout, %edi
	call	_ZStlsISt11char_traitsIcEERSt13basic_ostreamIcT_ES5_PKc
	movl	$_ZSt4endlIcSt11char_traitsIcEERSt13basic_ostreamIT_T0_ES6_, %esi
	movq	%rax, %rdi
	call	_ZNSolsEPFRSoS_E
	.loc 1 37 0
	leaq	-32(%rbp), %rax
	movq	%rax, %rdi
	call	_ZN6StringC1Ev
	.loc 1 38 0
	leaq	-32(%rbp), %rax
	movq	%rax, %rdi
	call	_ZN6String9printAddrEv
	.loc 1 39 0
	leaq	-16(%rbp), %rax
	movq	%rax, %rdi
	call	_ZN6StringC1Ev
	.loc 1 41 0
	leaq	-32(%rbp), %rdx
	leaq	-16(%rbp), %rax
	movq	%rdx, %rsi
	movq	%rax, %rdi
	call	_ZN6StringaSERKS_
	.loc 1 42 0
	leaq	-16(%rbp), %rax
	movq	%rax, %rdi
	call	_ZN6String9printAddrEv
	.loc 1 43 0
	movl	$0, %eax
	.loc 1 44 0
	movq	-8(%rbp), %rcx
	xorq	%fs:40, %rcx
	je	.L11
	call	__stack_chk_fail
.L11:
	leave
	.cfi_def_cfa 7, 8
	ret
	.cfi_endproc
.LFE1388:
	.size	main, .-main
	.type	_Z41__static_initialization_and_destruction_0ii, @function
_Z41__static_initialization_and_destruction_0ii:
.LFB1577:
	.loc 1 44 0
	.cfi_startproc
	pushq	%rbp
	.cfi_def_cfa_offset 16
	.cfi_offset 6, -16
	movq	%rsp, %rbp
	.cfi_def_cfa_register 6
	subq	$16, %rsp
	movl	%edi, -4(%rbp)
	movl	%esi, -8(%rbp)
	.loc 1 44 0
	cmpl	$1, -4(%rbp)
	jne	.L14
	.loc 1 44 0 is_stmt 0 discriminator 1
	cmpl	$65535, -8(%rbp)
	jne	.L14
	.file 2 "/usr/include/c++/5/iostream"
	.loc 2 74 0 is_stmt 1
	movl	$_ZStL8__ioinit, %edi
	call	_ZNSt8ios_base4InitC1Ev
	movl	$__dso_handle, %edx
	movl	$_ZStL8__ioinit, %esi
	movl	$_ZNSt8ios_base4InitD1Ev, %edi
	call	__cxa_atexit
.L14:
	.loc 1 44 0
	nop
	leave
	.cfi_def_cfa 7, 8
	ret
	.cfi_endproc
.LFE1577:
	.size	_Z41__static_initialization_and_destruction_0ii, .-_Z41__static_initialization_and_destruction_0ii
	.type	_GLOBAL__sub_I_main, @function
_GLOBAL__sub_I_main:
.LFB1578:
	.loc 1 44 0
	.cfi_startproc
	pushq	%rbp
	.cfi_def_cfa_offset 16
	.cfi_offset 6, -16
	movq	%rsp, %rbp
	.cfi_def_cfa_register 6
	.loc 1 44 0
	movl	$65535, %esi
	movl	$1, %edi
	call	_Z41__static_initialization_and_destruction_0ii
	popq	%rbp
	.cfi_def_cfa 7, 8
	ret
	.cfi_endproc
.LFE1578:
	.size	_GLOBAL__sub_I_main, .-_GLOBAL__sub_I_main
	.section	.init_array,"aw"
	.align 8
	.quad	_GLOBAL__sub_I_main
	.text
.Letext0:
	.file 3 "/usr/include/c++/5/cwchar"
	.file 4 "/usr/include/c++/5/bits/exception_ptr.h"
	.file 5 "/usr/include/x86_64-linux-gnu/c++/5/bits/c++config.h"
	.file 6 "/usr/include/c++/5/type_traits"
	.file 7 "/usr/include/c++/5/debug/debug.h"
	.file 8 "/usr/include/c++/5/bits/char_traits.h"
	.file 9 "/usr/include/c++/5/cstdint"
	.file 10 "/usr/include/c++/5/clocale"
	.file 11 "/usr/include/c++/5/bits/stl_pair.h"
	.file 12 "/usr/include/c++/5/new"
	.file 13 "/usr/include/c++/5/cstdlib"
	.file 14 "/usr/include/c++/5/cstdio"
	.file 15 "/usr/include/c++/5/system_error"
	.file 16 "/usr/include/c++/5/bits/ios_base.h"
	.file 17 "/usr/include/c++/5/cwctype"
	.file 18 "/usr/include/c++/5/iosfwd"
	.file 19 "/usr/include/c++/5/bits/predefined_ops.h"
	.file 20 "/usr/include/c++/5/ext/new_allocator.h"
	.file 21 "/usr/include/c++/5/ext/numeric_traits.h"
	.file 22 "/usr/include/stdio.h"
	.file 23 "/usr/include/libio.h"
	.file 24 "<built-in>"
	.file 25 "/usr/lib/gcc/x86_64-linux-gnu/5/include/stddef.h"
	.file 26 "/usr/include/wchar.h"
	.file 27 "/usr/include/time.h"
	.file 28 "/usr/include/stdint.h"
	.file 29 "/usr/include/locale.h"
	.file 30 "/usr/include/x86_64-linux-gnu/bits/types.h"
	.file 31 "/usr/include/x86_64-linux-gnu/c++/5/bits/atomic_word.h"
	.file 32 "/usr/include/stdlib.h"
	.file 33 "/usr/include/_G_config.h"
	.file 34 "/usr/include/wctype.h"
	.section	.note.GNU-stack,"",@progbits
